; Function Attrs: nounwind uwtable
define noalias nonnull ptr @l_Lean_Server_FileWorker_handleSemanticTokensDidChange___rarg___boxed(ptr noundef %0, ptr noundef %1, ptr noundef %2) #0 {
  tail call void @lean_inc_heartbeat() #7
  %4 = tail call noalias ptr @mi_malloc_small(i64 noundef 24) #7
  %5 = icmp eq ptr %4, null
  br i1 %5, label %6, label %lean_alloc_ctor.exit.i

6:                                                ; preds = %3
  tail call void @lean_internal_panic_out_of_memory() #8
  unreachable

lean_alloc_ctor.exit.i:                           ; preds = %3
  %7 = getelementptr inbounds nuw i8, ptr %4, i64 4
  store i32 1, ptr %4, align 4, !tbaa !8
  store i32 131096, ptr %7, align 4
  %8 = getelementptr inbounds nuw i8, ptr %4, i64 8
  store ptr inttoptr (i64 1 to ptr), ptr %8, align 8, !tbaa !11
  %9 = getelementptr inbounds nuw i8, ptr %4, i64 16
  store ptr %0, ptr %9, align 8, !tbaa !11
  tail call void @lean_inc_heartbeat() #7
  %10 = tail call noalias ptr @mi_malloc_small(i64 noundef 24) #7
  %11 = icmp eq ptr %10, null
  br i1 %11, label %12, label %l_Lean_Server_FileWorker_handleSemanticTokensDidChange___rarg.exit

12:                                               ; preds = %lean_alloc_ctor.exit.i
  tail call void @lean_internal_panic_out_of_memory() #8
  unreachable

l_Lean_Server_FileWorker_handleSemanticTokensDidChange___rarg.exit: ; preds = %lean_alloc_ctor.exit.i
  %13 = getelementptr inbounds nuw i8, ptr %10, i64 4
  store i32 1, ptr %10, align 4, !tbaa !8
  store i32 131096, ptr %13, align 4
  %14 = getelementptr inbounds nuw i8, ptr %10, i64 8
  store ptr %4, ptr %14, align 8, !tbaa !11
  %15 = getelementptr inbounds nuw i8, ptr %10, i64 16
  store ptr %2, ptr %15, align 8, !tbaa !11
  %16 = ptrtoint ptr %1 to i64
  %17 = and i64 %16, 1
  %.not = icmp eq i64 %17, 0
  br i1 %.not, label %18, label %lean_dec.exit

18:                                               ; preds = %l_Lean_Server_FileWorker_handleSemanticTokensDidChange___rarg.exit
  %19 = load i32, ptr %1, align 4, !tbaa !8
  %20 = icmp sgt i32 %19, 1
  br i1 %20, label %21, label %23, !prof !14

21:                                               ; preds = %18
  %22 = add nsw i32 %19, -1
  store i32 %22, ptr %1, align 4, !tbaa !8
  br label %lean_dec.exit

23:                                               ; preds = %18
  %.not.i = icmp eq i32 %19, 0
  br i1 %.not.i, label %lean_dec.exit, label %24

24:                                               ; preds = %23
  tail call void @lean_dec_ref_cold(ptr noundef nonnull %1) #7
  br label %lean_dec.exit

lean_dec.exit:                                    ; preds = %24, %23, %21, %l_Lean_Server_FileWorker_handleSemanticTokensDidChange___rarg.exit
  ret ptr %10
}